; Function Attrs: nounwind uwtable
define void @If_CutFoundFanins_rec(ptr noundef readonly captures(none) %0, ptr noundef captures(none) %1) local_unnamed_addr #0 {
  %3 = getelementptr inbounds nuw i8, ptr %0, i64 12
  %4 = load i32, ptr %3, align 4, !tbaa !104
  %.not13 = icmp eq i32 %4, 0
  br i1 %.not13, label %.lr.ph, label %._crit_edge

.lr.ph:                                           ; preds = %2, %tailrecurse
  %.tr14 = phi ptr [ %.val10, %tailrecurse ], [ %0, %2 ]
  %.val = load i32, ptr %.tr14, align 8
  %5 = and i32 %.val, 15
  %.not11 = icmp eq i32 %5, 2
  br i1 %.not11, label %._crit_edge, label %tailrecurse

._crit_edge:                                      ; preds = %tailrecurse, %.lr.ph, %2
  %.tr.lcssa = phi ptr [ %0, %2 ], [ %.tr14, %.lr.ph ], [ %.val10, %tailrecurse ]
  %6 = getelementptr inbounds nuw i8, ptr %.tr.lcssa, i64 4
  %7 = load i32, ptr %6, align 4, !tbaa !96
  %8 = getelementptr inbounds nuw i8, ptr %1, i64 4
  %9 = load i32, ptr %8, align 4, !tbaa !132
  %10 = icmp sgt i32 %9, 0
  br i1 %10, label %.lr.ph.i, label %._crit_edge.i

.lr.ph.i:                                         ; preds = %._crit_edge
  %11 = getelementptr inbounds nuw i8, ptr %1, i64 8
  %12 = load ptr, ptr %11, align 8, !tbaa !109
  %wide.trip.count.i = zext nneg i32 %9 to i64
  br label %14

13:                                               ; preds = %14
  %indvars.iv.next.i = add nuw nsw i64 %indvars.iv.i, 1
  %exitcond.not.i = icmp eq i64 %indvars.iv.next.i, %wide.trip.count.i
  br i1 %exitcond.not.i, label %._crit_edge.i, label %14, !llvm.loop !133

14:                                               ; preds = %13, %.lr.ph.i
  %indvars.iv.i = phi i64 [ 0, %.lr.ph.i ], [ %indvars.iv.next.i, %13 ]
  %15 = getelementptr inbounds nuw i32, ptr %12, i64 %indvars.iv.i
  %16 = load i32, ptr %15, align 4, !tbaa !14
  %17 = icmp eq i32 %16, %7
  br i1 %17, label %Vec_IntPushUnique.exit, label %13

._crit_edge.i:                                    ; preds = %13, %._crit_edge
  %18 = load i32, ptr %1, align 8, !tbaa !134
  %19 = icmp eq i32 %9, %18
  br i1 %19, label %20, label %.Vec_IntGrow.exit10_crit_edge.i.i

.Vec_IntGrow.exit10_crit_edge.i.i:                ; preds = %._crit_edge.i
  %.phi.trans.insert.i.i = getelementptr inbounds nuw i8, ptr %1, i64 8
  %.pre.i.i = load ptr, ptr %.phi.trans.insert.i.i, align 8, !tbaa !109
  br label %Vec_IntPush.exit.i

20:                                               ; preds = %._crit_edge.i
  %21 = icmp slt i32 %9, 16
  br i1 %21, label %22, label %30

22:                                               ; preds = %20
  %23 = getelementptr inbounds nuw i8, ptr %1, i64 8
  %24 = load ptr, ptr %23, align 8, !tbaa !109
  %.not9.i.i.i = icmp eq ptr %24, null
  br i1 %.not9.i.i.i, label %27, label %25

25:                                               ; preds = %22
  %26 = tail call dereferenceable_or_null(64) ptr @realloc(ptr noundef nonnull %24, i64 noundef 64) #21
  br label %Vec_IntGrow.exit.i.i

27:                                               ; preds = %22
  %28 = tail call noalias dereferenceable_or_null(64) ptr @malloc(i64 noundef 64) #22
  br label %Vec_IntGrow.exit.i.i

Vec_IntGrow.exit.i.i:                             ; preds = %27, %25
  %29 = phi ptr [ %26, %25 ], [ %28, %27 ]
  store ptr %29, ptr %23, align 8, !tbaa !109
  store i32 16, ptr %1, align 8, !tbaa !134
  br label %Vec_IntPush.exit.i

30:                                               ; preds = %20
  %31 = shl nuw nsw i32 %9, 1
  %32 = getelementptr inbounds nuw i8, ptr %1, i64 8
  %33 = load ptr, ptr %32, align 8, !tbaa !109
  %.not9.i9.i.i = icmp eq ptr %33, null
  %34 = zext nneg i32 %31 to i64
  %35 = shl nuw nsw i64 %34, 2
  br i1 %.not9.i9.i.i, label %38, label %36

36:                                               ; preds = %30
  %37 = tail call ptr @realloc(ptr noundef nonnull %33, i64 noundef %35) #21
  br label %40

38:                                               ; preds = %30
  %39 = tail call noalias ptr @malloc(i64 noundef %35) #22
  br label %40

40:                                               ; preds = %38, %36
  %41 = phi ptr [ %37, %36 ], [ %39, %38 ]
  store ptr %41, ptr %32, align 8, !tbaa !109
  store i32 %31, ptr %1, align 8, !tbaa !134
  br label %Vec_IntPush.exit.i

Vec_IntPush.exit.i:                               ; preds = %40, %Vec_IntGrow.exit.i.i, %.Vec_IntGrow.exit10_crit_edge.i.i
  %42 = phi ptr [ %.pre.i.i, %.Vec_IntGrow.exit10_crit_edge.i.i ], [ %41, %40 ], [ %29, %Vec_IntGrow.exit.i.i ]
  %43 = load i32, ptr %8, align 4, !tbaa !132
  %44 = add nsw i32 %43, 1
  store i32 %44, ptr %8, align 4, !tbaa !132
  %45 = sext i32 %43 to i64
  %46 = getelementptr inbounds i32, ptr %42, i64 %45
  store i32 %7, ptr %46, align 4, !tbaa !14
  br label %Vec_IntPushUnique.exit

tailrecurse:                                      ; preds = %.lr.ph
  %47 = getelementptr i8, ptr %.tr14, i64 24
  %.val9 = load ptr, ptr %47, align 8, !tbaa !122
  tail call void @If_CutFoundFanins_rec(ptr noundef %.val9, ptr noundef %1)
  %48 = getelementptr i8, ptr %.tr14, i64 32
  %.val10 = load ptr, ptr %48, align 8, !tbaa !123
  %49 = getelementptr inbounds nuw i8, ptr %.val10, i64 12
  %50 = load i32, ptr %49, align 4, !tbaa !104
  %.not = icmp eq i32 %50, 0
  br i1 %.not, label %.lr.ph, label %._crit_edge

Vec_IntPushUnique.exit:                           ; preds = %14, %Vec_IntPush.exit.i
  ret void
}